target datalayout = "e-m:e-p270:32:32-p271:32:32-p272:64:64-i64:64-i128:128-f80:128-n8:16:32:64-S128"
target triple = "x86_64-pc-linux-gnu"

; Function Attrs: nounwind uwtable
define internal void @Int32_To_Int24(ptr noundef %0, i32 noundef %1, ptr noundef %2, i32 noundef %3, i32 noundef %4, ptr noundef %5) #0 {
  %7 = alloca ptr, align 8
  %8 = alloca i32, align 4
  %9 = alloca ptr, align 8
  %10 = alloca i32, align 4
  %11 = alloca i32, align 4
  %12 = alloca ptr, align 8
  %13 = alloca ptr, align 8
  %14 = alloca ptr, align 8
  store ptr %0, ptr %7, align 8, !tbaa !70
  store i32 %1, ptr %8, align 4, !tbaa !71
  store ptr %2, ptr %9, align 8, !tbaa !70
  store i32 %3, ptr %10, align 4, !tbaa !71
  store i32 %4, ptr %11, align 4, !tbaa !71
  store ptr %5, ptr %12, align 8, !tbaa !73
  call void @llvm.lifetime.start.p0(i64 8, ptr %13) #4
  %15 = load ptr, ptr %9, align 8, !tbaa !70
  store ptr %15, ptr %13, align 8, !tbaa !77
  call void @llvm.lifetime.start.p0(i64 8, ptr %14) #4
  %16 = load ptr, ptr %7, align 8, !tbaa !70
  store ptr %16, ptr %14, align 8, !tbaa !87
  br label %17

17:                                               ; preds = %21, %6
  %18 = load i32, ptr %11, align 4, !tbaa !71
  %19 = add i32 %18, -1
  store i32 %19, ptr %11, align 4, !tbaa !71
  %20 = icmp ne i32 %18, 0
  br i1 %20, label %21, label %49

21:                                               ; preds = %17
  %22 = load ptr, ptr %13, align 8, !tbaa !77
  %23 = load i32, ptr %22, align 4, !tbaa !71
  %24 = ashr i32 %23, 8
  %25 = trunc i32 %24 to i8
  %26 = load ptr, ptr %14, align 8, !tbaa !87
  %27 = getelementptr inbounds i8, ptr %26, i64 0
  store i8 %25, ptr %27, align 1, !tbaa !89
  %28 = load ptr, ptr %13, align 8, !tbaa !77
  %29 = load i32, ptr %28, align 4, !tbaa !71
  %30 = ashr i32 %29, 16
  %31 = trunc i32 %30 to i8
  %32 = load ptr, ptr %14, align 8, !tbaa !87
  %33 = getelementptr inbounds i8, ptr %32, i64 1
  store i8 %31, ptr %33, align 1, !tbaa !89
  %34 = load ptr, ptr %13, align 8, !tbaa !77
  %35 = load i32, ptr %34, align 4, !tbaa !71
  %36 = ashr i32 %35, 24
  %37 = trunc i32 %36 to i8
  %38 = load ptr, ptr %14, align 8, !tbaa !87
  %39 = getelementptr inbounds i8, ptr %38, i64 2
  store i8 %37, ptr %39, align 1, !tbaa !89
  %40 = load i32, ptr %10, align 4, !tbaa !71
  %41 = load ptr, ptr %13, align 8, !tbaa !77
  %42 = sext i32 %40 to i64
  %43 = getelementptr inbounds i32, ptr %41, i64 %42
  store ptr %43, ptr %13, align 8, !tbaa !77
  %44 = load i32, ptr %8, align 4, !tbaa !71
  %45 = mul nsw i32 %44, 3
  %46 = load ptr, ptr %14, align 8, !tbaa !87
  %47 = sext i32 %45 to i64
  %48 = getelementptr inbounds i8, ptr %46, i64 %47
  store ptr %48, ptr %14, align 8, !tbaa !87
  br label %17, !llvm.loop !111

49:                                               ; preds = %17
  call void @llvm.lifetime.end.p0(i64 8, ptr %14) #4
  call void @llvm.lifetime.end.p0(i64 8, ptr %13) #4
  ret void
}