; Function Attrs: nofree norecurse nosync nounwind memory(argmem: readwrite) uwtable
define internal void @Int32_To_Int24(ptr noundef writeonly captures(none) %0, i32 noundef %1, ptr noundef readonly captures(none) %2, i32 noundef %3, i32 noundef %4, ptr readnone captures(none) %5) #2 {
  %.not14 = icmp eq i32 %4, 0
  br i1 %.not14, label %._crit_edge, label %.lr.ph

.lr.ph:                                           ; preds = %6
  %7 = sext i32 %3 to i64
  %8 = mul nsw i32 %1, 3
  %9 = sext i32 %8 to i64
  br label %10

10:                                               ; preds = %.lr.ph, %10
  %.017 = phi ptr [ %0, %.lr.ph ], [ %24, %10 ]
  %.01216 = phi ptr [ %2, %.lr.ph ], [ %23, %10 ]
  %.01315 = phi i32 [ %4, %.lr.ph ], [ %11, %10 ]
  %11 = add i32 %.01315, -1
  %12 = load i32, ptr %.01216, align 4, !tbaa !70
  %13 = lshr i32 %12, 8
  %14 = trunc i32 %13 to i8
  store i8 %14, ptr %.017, align 1, !tbaa !76
  %15 = load i32, ptr %.01216, align 4, !tbaa !70
  %16 = lshr i32 %15, 16
  %17 = trunc i32 %16 to i8
  %18 = getelementptr inbounds nuw i8, ptr %.017, i64 1
  store i8 %17, ptr %18, align 1, !tbaa !76
  %19 = load i32, ptr %.01216, align 4, !tbaa !70
  %20 = lshr i32 %19, 24
  %21 = trunc nuw i32 %20 to i8
  %22 = getelementptr inbounds nuw i8, ptr %.017, i64 2
  store i8 %21, ptr %22, align 1, !tbaa !76
  %23 = getelementptr inbounds i32, ptr %.01216, i64 %7
  %24 = getelementptr inbounds i8, ptr %.017, i64 %9
  %.not = icmp eq i32 %11, 0
  br i1 %.not, label %._crit_edge, label %10, !llvm.loop !96

._crit_edge:                                      ; preds = %10, %6
  ret void
}